target datalayout = "e-m:e-p270:32:32-p271:32:32-p272:64:64-i64:64-i128:128-f80:128-n8:16:32:64-S128"
target triple = "x86_64-pc-linux-gnu"

%"class.ncnn::Mat" = type { ptr, ptr, i64, i32, ptr, i32, i32, i32, i32, i32, i64 }

; Function Attrs: mustprogress nounwind uwtable
define hidden void @_ZNK4ncnn4Crop16resolve_crop_roiERKNS_3MatEPKiRiS6_S6_S6_S6_S6_S6_S6_(ptr noundef nonnull align 8 dereferenceable(472) %0, ptr noundef nonnull align 8 dereferenceable(72) %1, ptr noundef %2, ptr noundef nonnull align 4 dereferenceable(4) %3, ptr noundef nonnull align 4 dereferenceable(4) %4, ptr noundef nonnull align 4 dereferenceable(4) %5, ptr noundef nonnull align 4 dereferenceable(4) %6, ptr noundef nonnull align 4 dereferenceable(4) %7, ptr noundef nonnull align 4 dereferenceable(4) %8, ptr noundef nonnull align 4 dereferenceable(4) %9, ptr noundef nonnull align 4 dereferenceable(4) %10) #11 align 2 {
  %12 = alloca ptr, align 8
  %13 = alloca ptr, align 8
  %14 = alloca ptr, align 8
  %15 = alloca ptr, align 8
  %16 = alloca ptr, align 8
  %17 = alloca ptr, align 8
  %18 = alloca ptr, align 8
  %19 = alloca ptr, align 8
  %20 = alloca ptr, align 8
  %21 = alloca ptr, align 8
  %22 = alloca ptr, align 8
  %23 = alloca i32, align 4
  store ptr %0, ptr %12, align 8, !tbaa !4
  store ptr %1, ptr %13, align 8, !tbaa !53
  store ptr %2, ptr %14, align 8, !tbaa !72
  store ptr %3, ptr %15, align 8, !tbaa !72
  store ptr %4, ptr %16, align 8, !tbaa !72
  store ptr %5, ptr %17, align 8, !tbaa !72
  store ptr %6, ptr %18, align 8, !tbaa !72
  store ptr %7, ptr %19, align 8, !tbaa !72
  store ptr %8, ptr %20, align 8, !tbaa !72
  store ptr %9, ptr %21, align 8, !tbaa !72
  store ptr %10, ptr %22, align 8, !tbaa !72
  call void @llvm.lifetime.start.p0(i64 4, ptr %23) #9
  %24 = load ptr, ptr %13, align 8, !tbaa !53
  %25 = getelementptr inbounds nuw %"class.ncnn::Mat", ptr %24, i32 0, i32 5
  %26 = load i32, ptr %25, align 8, !tbaa !59
  store i32 %26, ptr %23, align 4, !tbaa !55
  %27 = load i32, ptr %23, align 4, !tbaa !55
  %28 = icmp eq i32 %27, 1
  br i1 %28, label %29, label %38

29:                                               ; preds = %11
  %30 = load ptr, ptr %14, align 8, !tbaa !72
  %31 = getelementptr inbounds i32, ptr %30, i64 0
  %32 = load i32, ptr %31, align 4, !tbaa !55
  %33 = load ptr, ptr %15, align 8, !tbaa !72
  store i32 %32, ptr %33, align 4, !tbaa !55
  %34 = load ptr, ptr %14, align 8, !tbaa !72
  %35 = getelementptr inbounds i32, ptr %34, i64 3
  %36 = load i32, ptr %35, align 4, !tbaa !55
  %37 = load ptr, ptr %19, align 8, !tbaa !72
  store i32 %36, ptr %37, align 4, !tbaa !55
  br label %38

38:                                               ; preds = %29, %11
  %39 = load i32, ptr %23, align 4, !tbaa !55
  %40 = icmp eq i32 %39, 2
  br i1 %40, label %41, label %58

41:                                               ; preds = %38
  %42 = load ptr, ptr %14, align 8, !tbaa !72
  %43 = getelementptr inbounds i32, ptr %42, i64 0
  %44 = load i32, ptr %43, align 4, !tbaa !55
  %45 = load ptr, ptr %15, align 8, !tbaa !72
  store i32 %44, ptr %45, align 4, !tbaa !55
  %46 = load ptr, ptr %14, align 8, !tbaa !72
  %47 = getelementptr inbounds i32, ptr %46, i64 1
  %48 = load i32, ptr %47, align 4, !tbaa !55
  %49 = load ptr, ptr %16, align 8, !tbaa !72
  store i32 %48, ptr %49, align 4, !tbaa !55
  %50 = load ptr, ptr %14, align 8, !tbaa !72
  %51 = getelementptr inbounds i32, ptr %50, i64 3
  %52 = load i32, ptr %51, align 4, !tbaa !55
  %53 = load ptr, ptr %19, align 8, !tbaa !72
  store i32 %52, ptr %53, align 4, !tbaa !55
  %54 = load ptr, ptr %14, align 8, !tbaa !72
  %55 = getelementptr inbounds i32, ptr %54, i64 4
  %56 = load i32, ptr %55, align 4, !tbaa !55
  %57 = load ptr, ptr %20, align 8, !tbaa !72
  store i32 %56, ptr %57, align 4, !tbaa !55
  br label %58

58:                                               ; preds = %41, %38
  %59 = load i32, ptr %23, align 4, !tbaa !55
  %60 = icmp eq i32 %59, 3
  br i1 %60, label %61, label %86

61:                                               ; preds = %58
  %62 = load ptr, ptr %14, align 8, !tbaa !72
  %63 = getelementptr inbounds i32, ptr %62, i64 0
  %64 = load i32, ptr %63, align 4, !tbaa !55
  %65 = load ptr, ptr %15, align 8, !tbaa !72
  store i32 %64, ptr %65, align 4, !tbaa !55
  %66 = load ptr, ptr %14, align 8, !tbaa !72
  %67 = getelementptr inbounds i32, ptr %66, i64 1
  %68 = load i32, ptr %67, align 4, !tbaa !55
  %69 = load ptr, ptr %16, align 8, !tbaa !72
  store i32 %68, ptr %69, align 4, !tbaa !55
  %70 = load ptr, ptr %14, align 8, !tbaa !72
  %71 = getelementptr inbounds i32, ptr %70, i64 2
  %72 = load i32, ptr %71, align 4, !tbaa !55
  %73 = load ptr, ptr %18, align 8, !tbaa !72
  store i32 %72, ptr %73, align 4, !tbaa !55
  %74 = load ptr, ptr %14, align 8, !tbaa !72
  %75 = getelementptr inbounds i32, ptr %74, i64 3
  %76 = load i32, ptr %75, align 4, !tbaa !55
  %77 = load ptr, ptr %19, align 8, !tbaa !72
  store i32 %76, ptr %77, align 4, !tbaa !55
  %78 = load ptr, ptr %14, align 8, !tbaa !72
  %79 = getelementptr inbounds i32, ptr %78, i64 4
  %80 = load i32, ptr %79, align 4, !tbaa !55
  %81 = load ptr, ptr %20, align 8, !tbaa !72
  store i32 %80, ptr %81, align 4, !tbaa !55
  %82 = load ptr, ptr %14, align 8, !tbaa !72
  %83 = getelementptr inbounds i32, ptr %82, i64 5
  %84 = load i32, ptr %83, align 4, !tbaa !55
  %85 = load ptr, ptr %22, align 8, !tbaa !72
  store i32 %84, ptr %85, align 4, !tbaa !55
  br label %86

86:                                               ; preds = %61, %58
  %87 = load i32, ptr %23, align 4, !tbaa !55
  %88 = icmp eq i32 %87, 4
  br i1 %88, label %89, label %122

89:                                               ; preds = %86
  %90 = load ptr, ptr %14, align 8, !tbaa !72
  %91 = getelementptr inbounds i32, ptr %90, i64 0
  %92 = load i32, ptr %91, align 4, !tbaa !55
  %93 = load ptr, ptr %15, align 8, !tbaa !72
  store i32 %92, ptr %93, align 4, !tbaa !55
  %94 = load ptr, ptr %14, align 8, !tbaa !72
  %95 = getelementptr inbounds i32, ptr %94, i64 1
  %96 = load i32, ptr %95, align 4, !tbaa !55
  %97 = load ptr, ptr %16, align 8, !tbaa !72
  store i32 %96, ptr %97, align 4, !tbaa !55
  %98 = load ptr, ptr %14, align 8, !tbaa !72
  %99 = getelementptr inbounds i32, ptr %98, i64 2
  %100 = load i32, ptr %99, align 4, !tbaa !55
  %101 = load ptr, ptr %17, align 8, !tbaa !72
  store i32 %100, ptr %101, align 4, !tbaa !55
  %102 = load ptr, ptr %14, align 8, !tbaa !72
  %103 = getelementptr inbounds i32, ptr %102, i64 3
  %104 = load i32, ptr %103, align 4, !tbaa !55
  %105 = load ptr, ptr %18, align 8, !tbaa !72
  store i32 %104, ptr %105, align 4, !tbaa !55
  %106 = load ptr, ptr %14, align 8, !tbaa !72
  %107 = getelementptr inbounds i32, ptr %106, i64 4
  %108 = load i32, ptr %107, align 4, !tbaa !55
  %109 = load ptr, ptr %19, align 8, !tbaa !72
  store i32 %108, ptr %109, align 4, !tbaa !55
  %110 = load ptr, ptr %14, align 8, !tbaa !72
  %111 = getelementptr inbounds i32, ptr %110, i64 5
  %112 = load i32, ptr %111, align 4, !tbaa !55
  %113 = load ptr, ptr %20, align 8, !tbaa !72
  store i32 %112, ptr %113, align 4, !tbaa !55
  %114 = load ptr, ptr %14, align 8, !tbaa !72
  %115 = getelementptr inbounds i32, ptr %114, i64 6
  %116 = load i32, ptr %115, align 4, !tbaa !55
  %117 = load ptr, ptr %21, align 8, !tbaa !72
  store i32 %116, ptr %117, align 4, !tbaa !55
  %118 = load ptr, ptr %14, align 8, !tbaa !72
  %119 = getelementptr inbounds i32, ptr %118, i64 7
  %120 = load i32, ptr %119, align 4, !tbaa !55
  %121 = load ptr, ptr %22, align 8, !tbaa !72
  store i32 %120, ptr %121, align 4, !tbaa !55
  br label %122

122:                                              ; preds = %89, %86
  call void @llvm.lifetime.end.p0(i64 4, ptr %23) #9
  ret void
}