; Function Attrs: mustprogress nofree norecurse nosync nounwind willreturn memory(write, argmem: readwrite, inaccessiblemem: none) uwtable
define hidden void @_ZNK4ncnn4Crop16resolve_crop_roiERKNS_3MatEPKiRiS6_S6_S6_S6_S6_S6_S6_(ptr noundef nonnull readnone align 8 captures(none) dereferenceable(472) %0, ptr noundef nonnull readonly align 8 captures(none) dereferenceable(72) %1, ptr noundef readonly captures(none) %2, ptr noundef nonnull writeonly align 4 captures(none) dereferenceable(4) %3, ptr noundef nonnull writeonly align 4 captures(none) dereferenceable(4) %4, ptr noundef nonnull writeonly align 4 captures(none) dereferenceable(4) %5, ptr noundef nonnull writeonly align 4 captures(none) dereferenceable(4) %6, ptr noundef nonnull writeonly align 4 captures(none) dereferenceable(4) %7, ptr noundef nonnull writeonly align 4 captures(none) dereferenceable(4) %8, ptr noundef nonnull writeonly align 4 captures(none) dereferenceable(4) %9, ptr noundef nonnull writeonly align 4 captures(none) dereferenceable(4) %10) local_unnamed_addr #12 align 2 {
  %12 = getelementptr inbounds nuw i8, ptr %1, i64 40
  %13 = load i32, ptr %12, align 8, !tbaa !47
  switch i32 %13, label %48 [
    i32 1, label %14
    i32 2, label %16
    i32 3, label %22
    i32 4, label %32
  ]

14:                                               ; preds = %11
  %15 = load i32, ptr %2, align 4, !tbaa !55
  store i32 %15, ptr %3, align 4, !tbaa !55
  br label %.sink.split

16:                                               ; preds = %11
  %17 = load i32, ptr %2, align 4, !tbaa !55
  store i32 %17, ptr %3, align 4, !tbaa !55
  %18 = getelementptr inbounds nuw i8, ptr %2, i64 4
  %19 = load i32, ptr %18, align 4, !tbaa !55
  store i32 %19, ptr %4, align 4, !tbaa !55
  %20 = getelementptr inbounds nuw i8, ptr %2, i64 12
  %21 = load i32, ptr %20, align 4, !tbaa !55
  store i32 %21, ptr %7, align 4, !tbaa !55
  br label %.sink.split

22:                                               ; preds = %11
  %23 = load i32, ptr %2, align 4, !tbaa !55
  store i32 %23, ptr %3, align 4, !tbaa !55
  %24 = getelementptr inbounds nuw i8, ptr %2, i64 4
  %25 = load i32, ptr %24, align 4, !tbaa !55
  store i32 %25, ptr %4, align 4, !tbaa !55
  %26 = getelementptr inbounds nuw i8, ptr %2, i64 8
  %27 = load i32, ptr %26, align 4, !tbaa !55
  store i32 %27, ptr %6, align 4, !tbaa !55
  %28 = getelementptr inbounds nuw i8, ptr %2, i64 12
  %29 = load i32, ptr %28, align 4, !tbaa !55
  store i32 %29, ptr %7, align 4, !tbaa !55
  %30 = getelementptr inbounds nuw i8, ptr %2, i64 16
  %31 = load i32, ptr %30, align 4, !tbaa !55
  store i32 %31, ptr %8, align 4, !tbaa !55
  br label %.sink.split

32:                                               ; preds = %11
  %33 = load i32, ptr %2, align 4, !tbaa !55
  store i32 %33, ptr %3, align 4, !tbaa !55
  %34 = getelementptr inbounds nuw i8, ptr %2, i64 4
  %35 = load i32, ptr %34, align 4, !tbaa !55
  store i32 %35, ptr %4, align 4, !tbaa !55
  %36 = getelementptr inbounds nuw i8, ptr %2, i64 8
  %37 = load i32, ptr %36, align 4, !tbaa !55
  store i32 %37, ptr %5, align 4, !tbaa !55
  %38 = getelementptr inbounds nuw i8, ptr %2, i64 12
  %39 = load i32, ptr %38, align 4, !tbaa !55
  store i32 %39, ptr %6, align 4, !tbaa !55
  %40 = getelementptr inbounds nuw i8, ptr %2, i64 16
  %41 = load i32, ptr %40, align 4, !tbaa !55
  store i32 %41, ptr %7, align 4, !tbaa !55
  %42 = getelementptr inbounds nuw i8, ptr %2, i64 20
  %43 = load i32, ptr %42, align 4, !tbaa !55
  store i32 %43, ptr %8, align 4, !tbaa !55
  %44 = getelementptr inbounds nuw i8, ptr %2, i64 24
  %45 = load i32, ptr %44, align 4, !tbaa !55
  store i32 %45, ptr %9, align 4, !tbaa !55
  br label %.sink.split

.sink.split:                                      ; preds = %32, %14, %16, %22
  %.sink = phi i64 [ 20, %22 ], [ 16, %16 ], [ 12, %14 ], [ 28, %32 ]
  %.sink44 = phi ptr [ %10, %22 ], [ %8, %16 ], [ %7, %14 ], [ %10, %32 ]
  %46 = getelementptr inbounds nuw i8, ptr %2, i64 %.sink
  %47 = load i32, ptr %46, align 4, !tbaa !55
  store i32 %47, ptr %.sink44, align 4, !tbaa !55
  br label %48

48:                                               ; preds = %.sink.split, %11
  ret void
}